; Function Attrs: mustprogress uwtable
define void @ucal_setDate_75(ptr noundef %cal, i32 noundef %year, i32 noundef %month, i32 noundef %date, ptr nocapture noundef readonly %status) local_unnamed_addr #1 {
entry:
  %0 = load i32, ptr %status, align 4
  %cmp.i = icmp slt i32 %0, 1
  br i1 %cmp.i, label %if.end, label %return

if.end:                                           ; preds = %entry
  tail call void @_ZN6icu_758Calendar3setEiii(ptr noundef nonnull align 8 dereferenceable(618) %cal, i32 noundef %year, i32 noundef %month, i32 noundef %date)
  br label %return

return:                                           ; preds = %entry, %if.end
  ret void
}